target datalayout = "e-m:e-p270:32:32-p271:32:32-p272:64:64-i64:64-i128:128-f80:128-n8:16:32:64-S128"
target triple = "x86_64-pc-linux-gnu"

%struct.pmi2_job_info = type { %struct.slurm_step_id_msg, i32, i32, i32, i32, i32, ptr, i32, i32, ptr, ptr, ptr, ptr, ptr, ptr, ptr, ptr }
%struct.slurm_step_id_msg = type { i64, i32, i32, i32 }
%struct.pmi2_tree_info = type { ptr, ptr, i32, i32, i32, i32, i16, ptr, ptr }

@kvs_seq = dso_local global i32 1, align 4
@temp_kvs_buf = internal global ptr null, align 8
@temp_kvs_cnt = internal global i32 0, align 4
@job_info = external global %struct.pmi2_job_info, align 8
@tree_info = external global %struct.pmi2_tree_info, align 8
@.str.1 = private unnamed_addr constant [49 x i8] c"%s: %s: failed to send temp kvs, rc=%d, retrying\00", align 1
@plugin_type = external constant [0 x i8], align 1
@__func__.temp_kvs_send = private unnamed_addr constant [14 x i8] c"temp_kvs_send\00", align 1
@tree_sock_addr = external global [0 x i8], align 1

; Function Attrs: nounwind uwtable
define dso_local i32 @temp_kvs_send() #0 {
  %1 = alloca i32, align 4
  %2 = alloca i32, align 4
  %3 = alloca i32, align 4
  %4 = alloca ptr, align 8
  call void @llvm.lifetime.start.p0(i64 4, ptr %1) #7
  store i32 -1, ptr %1, align 4
  call void @llvm.lifetime.start.p0(i64 4, ptr %2) #7
  store i32 0, ptr %2, align 4
  call void @llvm.lifetime.start.p0(i64 4, ptr %3) #7
  store i32 1, ptr %3, align 4
  call void @llvm.lifetime.start.p0(i64 8, ptr %4) #7
  store ptr null, ptr %4, align 8
  %5 = call zeroext i1 @in_stepd()
  br i1 %5, label %9, label %6

6:                                                ; preds = %0
  %7 = load ptr, ptr getelementptr inbounds nuw (%struct.pmi2_job_info, ptr @job_info, i32 0, i32 9), align 8
  %8 = call ptr @slurm_xstrdup(ptr noundef %7)
  store ptr %8, ptr %4, align 8
  br label %16

9:                                                ; preds = %0
  %10 = load ptr, ptr getelementptr inbounds nuw (%struct.pmi2_tree_info, ptr @tree_info, i32 0, i32 1), align 8
  %11 = icmp ne ptr %10, null
  br i1 %11, label %12, label %15

12:                                               ; preds = %9
  %13 = load ptr, ptr getelementptr inbounds nuw (%struct.pmi2_tree_info, ptr @tree_info, i32 0, i32 1), align 8
  %14 = call ptr @slurm_xstrdup(ptr noundef %13)
  store ptr %14, ptr %4, align 8
  br label %15

15:                                               ; preds = %12, %9
  br label %16

16:                                               ; preds = %15, %6
  %17 = load i32, ptr @kvs_seq, align 4
  %18 = add nsw i32 %17, 1
  store i32 %18, ptr @kvs_seq, align 4
  br label %19

19:                                               ; preds = %55, %16
  br label %20

20:                                               ; preds = %19
  %21 = load i32, ptr %2, align 4
  %22 = icmp eq i32 %21, 1
  br i1 %22, label %23, label %35

23:                                               ; preds = %20
  br label %24

24:                                               ; preds = %23
  br label %25

25:                                               ; preds = %24
  %26 = call i32 @slurm_get_log_level()
  %27 = icmp sge i32 %26, 4
  br i1 %27, label %28, label %30

28:                                               ; preds = %25
  %29 = load i32, ptr %1, align 4
  call void (i32, ptr, ...) @slurm_log_var(i32 noundef 4, ptr noundef @.str.1, ptr noundef @plugin_type, ptr noundef @__func__.temp_kvs_send, i32 noundef %29)
  br label %30

30:                                               ; preds = %28, %25
  br label %31

31:                                               ; preds = %30
  br label %32

32:                                               ; preds = %31
  br label %33

33:                                               ; preds = %32
  br label %34

34:                                               ; preds = %33
  br label %35

35:                                               ; preds = %34, %20
  %36 = load ptr, ptr %4, align 8
  %37 = icmp ne ptr %36, null
  br i1 %37, label %38, label %42

38:                                               ; preds = %35
  %39 = load i32, ptr @temp_kvs_cnt, align 4
  %40 = load ptr, ptr @temp_kvs_buf, align 8
  %41 = call i32 @slurm_forward_data(ptr noundef %4, ptr noundef @tree_sock_addr, i32 noundef %39, ptr noundef %40)
  store i32 %41, ptr %1, align 4
  br label %46

42:                                               ; preds = %35
  %43 = load i32, ptr @temp_kvs_cnt, align 4
  %44 = load ptr, ptr @temp_kvs_buf, align 8
  %45 = call i32 @tree_msg_to_srun(i32 noundef %43, ptr noundef %44)
  store i32 %45, ptr %1, align 4
  br label %46

46:                                               ; preds = %42, %38
  %47 = load i32, ptr %1, align 4
  %48 = icmp eq i32 %47, 0
  br i1 %48, label %49, label %50

49:                                               ; preds = %46
  br label %60

50:                                               ; preds = %46
  %51 = load i32, ptr %2, align 4
  %52 = add nsw i32 %51, 1
  store i32 %52, ptr %2, align 4
  %53 = icmp sge i32 %52, 5
  br i1 %53, label %54, label %55

54:                                               ; preds = %50
  br label %60

55:                                               ; preds = %50
  %56 = load i32, ptr %3, align 4
  %57 = call i32 @sleep(i32 noundef %56)
  %58 = load i32, ptr %3, align 4
  %59 = mul i32 %58, 2
  store i32 %59, ptr %3, align 4
  br label %19, !llvm.loop !8

60:                                               ; preds = %54, %49
  %61 = call i32 @temp_kvs_init()
  call void @slurm_xfree(ptr noundef %4)
  %62 = load i32, ptr %1, align 4
  call void @llvm.lifetime.end.p0(i64 8, ptr %4) #7
  call void @llvm.lifetime.end.p0(i64 4, ptr %3) #7
  call void @llvm.lifetime.end.p0(i64 4, ptr %2) #7
  call void @llvm.lifetime.end.p0(i64 4, ptr %1) #7
  ret i32 %62
}