; Function Attrs: nounwind uwtable
define dso_local i32 @temp_kvs_send() local_unnamed_addr #0 {
  %1 = alloca ptr, align 8
  call void @llvm.lifetime.start.p0(i64 8, ptr nonnull %1) #6
  store ptr null, ptr %1, align 8
  %2 = tail call zeroext i1 @in_stepd() #6
  br i1 %2, label %5, label %3

3:                                                ; preds = %0
  %4 = load ptr, ptr getelementptr inbounds nuw (i8, ptr @job_info, i64 64), align 8
  br label %.sink.split

5:                                                ; preds = %0
  %6 = load ptr, ptr getelementptr inbounds nuw (i8, ptr @tree_info, i64 8), align 8
  %.not = icmp eq ptr %6, null
  br i1 %.not, label %8, label %.sink.split

.sink.split:                                      ; preds = %5, %3
  %.sink12 = phi ptr [ %4, %3 ], [ %6, %5 ]
  %7 = tail call ptr @slurm_xstrdup(ptr noundef %.sink12) #6
  store ptr %7, ptr %1, align 8
  br label %8

8:                                                ; preds = %.sink.split, %5
  %9 = load i32, ptr @kvs_seq, align 4
  %10 = add nsw i32 %9, 1
  store i32 %10, ptr @kvs_seq, align 4
  br label %11

11:                                               ; preds = %28, %8
  %.08 = phi i32 [ -1, %8 ], [ %.1, %28 ]
  %.07 = phi i32 [ 0, %8 ], [ %29, %28 ]
  %.0 = phi i32 [ 1, %8 ], [ %31, %28 ]
  %12 = icmp eq i32 %.07, 1
  br i1 %12, label %13, label %17

13:                                               ; preds = %11
  %14 = call i32 @slurm_get_log_level() #6
  %15 = icmp sgt i32 %14, 3
  br i1 %15, label %16, label %17

16:                                               ; preds = %13
  call void (i32, ptr, ...) @slurm_log_var(i32 noundef 4, ptr noundef nonnull @.str.1, ptr noundef nonnull @plugin_type, ptr noundef nonnull @__func__.temp_kvs_send, i32 noundef %.08) #6
  br label %17

17:                                               ; preds = %13, %16, %11
  %18 = load ptr, ptr %1, align 8
  %.not11 = icmp eq ptr %18, null
  %19 = load i32, ptr @temp_kvs_cnt, align 4
  %20 = load ptr, ptr @temp_kvs_buf, align 8
  br i1 %.not11, label %23, label %21

21:                                               ; preds = %17
  %22 = call i32 @slurm_forward_data(ptr noundef nonnull %1, ptr noundef nonnull @tree_sock_addr, i32 noundef %19, ptr noundef %20) #6
  br label %25

23:                                               ; preds = %17
  %24 = call i32 @tree_msg_to_srun(i32 noundef %19, ptr noundef %20) #6
  br label %25

25:                                               ; preds = %23, %21
  %.1 = phi i32 [ %22, %21 ], [ %24, %23 ]
  %26 = icmp eq i32 %.1, 0
  %27 = icmp samesign ugt i32 %.07, 3
  %or.cond = select i1 %26, i1 true, i1 %27
  br i1 %or.cond, label %32, label %28

28:                                               ; preds = %25
  %29 = add nuw nsw i32 %.07, 1
  %30 = call i32 @sleep(i32 noundef %.0) #6
  %31 = shl i32 %.0, 1
  br label %11, !llvm.loop !8

32:                                               ; preds = %25
  %33 = call i32 @temp_kvs_init()
  call void @slurm_xfree(ptr noundef nonnull %1) #6
  call void @llvm.lifetime.end.p0(i64 8, ptr nonnull %1) #6
  ret i32 %.1
}